; Function Attrs: mustprogress nofree norecurse nosync nounwind willreturn memory(argmem: read) uwtable
define dso_local noundef zeroext i1 @_ZNK4llvm6object14WasmObjectFile22isDefinedFunctionIndexEj(ptr nocapture noundef nonnull readonly align 8 dereferenceable(684) %0, i32 noundef %1) local_unnamed_addr #4 align 2 {
  %3 = getelementptr inbounds nuw i8, ptr %0, i64 656
  %4 = load i32, ptr %3, align 8
  %.not = icmp ult i32 %1, %4
  br i1 %.not, label %18, label %5

5:                                                ; preds = %2
  %6 = zext i32 %1 to i64
  %7 = zext i32 %4 to i64
  %8 = getelementptr inbounds nuw i8, ptr %0, i64 512
  %9 = getelementptr inbounds i8, ptr %0, i64 520
  %10 = load ptr, ptr %9, align 8
  %11 = load ptr, ptr %8, align 8
  %12 = ptrtoint ptr %10 to i64
  %13 = ptrtoint ptr %11 to i64
  %14 = sub i64 %12, %13
  %15 = ashr exact i64 %14, 7
  %16 = add nsw i64 %15, %7
  %17 = icmp ugt i64 %16, %6
  br label %18

18:                                               ; preds = %5, %2
  %19 = phi i1 [ false, %2 ], [ %17, %5 ]
  ret i1 %19
}